; Function Attrs: noreturn nounwind sspstrong uwtable
define void @rsock_syserr_fail_raddrinfo_or_sockaddr(i32 noundef %0, ptr noundef %1, i64 noundef %2, i64 noundef %3) local_unnamed_addr #1 {
  %5 = alloca i64, align 8
  store i64 %2, ptr %5, align 8, !tbaa !10
  %6 = icmp eq i64 %3, 4
  br i1 %6, label %7, label %18

7:                                                ; preds = %4
  %8 = call i64 @rb_string_value(ptr noundef nonnull %5) #16
  %9 = load i64, ptr %5, align 8, !tbaa !10
  %10 = inttoptr i64 %9 to ptr
  %11 = load i64, ptr %10, align 8, !tbaa !12, !noalias !14
  %12 = and i64 %11, 8192
  %.not.i.i = icmp eq i64 %12, 0
  %13 = getelementptr inbounds nuw i8, ptr %10, i64 24
  br i1 %.not.i.i, label %RSTRING_PTR.exit, label %14

14:                                               ; preds = %7
  %.sroa.2.0.copyload.i = load ptr, ptr %13, align 8
  br label %RSTRING_PTR.exit

RSTRING_PTR.exit:                                 ; preds = %7, %14
  %.sroa.2.0.i = phi ptr [ %.sroa.2.0.copyload.i, %14 ], [ %13, %7 ]
  %15 = getelementptr inbounds nuw i8, ptr %10, i64 16
  %16 = load i64, ptr %15, align 8, !tbaa !17
  %17 = trunc i64 %16 to i32
  call void @rsock_syserr_fail_sockaddr(i32 noundef %0, ptr noundef %1, ptr noundef %.sroa.2.0.i, i32 noundef %17) #17
  unreachable

18:                                               ; preds = %4
  tail call void @rsock_syserr_fail_raddrinfo(i32 noundef %0, ptr noundef %1, i64 noundef %3) #17
  unreachable
}